TN:
SF:/home/fr/Projects/cpp/numerical/build/include/numerical/fdm/Mesh.hpp
FN:51,_ZN9numerical3fdm4MeshIdEC2ERKSt6vectorIS3_IdSaIdEESaIS5_EEddRKS3_IiSaIiEEi
FN:94,_ZN9numerical3fdm4MeshIdE17division_per_axisEv
FN:111,_ZN9numerical3fdm4MeshIdE4leftEv
FN:138,_ZN9numerical3fdm4MeshIdE5rightEv
FN:151,_ZN9numerical3fdm4MeshIdE6bottomEv
FN:173,_ZN9numerical3fdm4MeshIdE3topEv
FN:193,_ZN9numerical3fdm4MeshIdE5frontEv
FN:206,_ZN9numerical3fdm4MeshIdE4backEv
FN:220,_ZN9numerical3fdm4MeshIdE10boundariesEv
FN:342,_ZN9numerical3fdm4MeshIdE2dxEv
FNDA:3,_ZN9numerical3fdm4MeshIdE5rightEv
FNDA:22,_ZN9numerical3fdm4MeshIdEC2ERKSt6vectorIS3_IdSaIdEESaIS5_EEddRKS3_IiSaIiEEi
FNDA:3,_ZN9numerical3fdm4MeshIdE2dxEv
FNDA:1,_ZN9numerical3fdm4MeshIdE5frontEv
FNDA:2,_ZN9numerical3fdm4MeshIdE4backEv
FNDA:7,_ZN9numerical3fdm4MeshIdE4leftEv
FNDA:3,_ZN9numerical3fdm4MeshIdE10boundariesEv
FNDA:2,_ZN9numerical3fdm4MeshIdE3topEv
FNDA:4,_ZN9numerical3fdm4MeshIdE6bottomEv
FNDA:22,_ZN9numerical3fdm4MeshIdE17division_per_axisEv
FNF:10
FNH:10
DA:51,22
DA:57,32
DA:59,22
DA:60,22
DA:63,0
DA:65,22
DA:66,1
DA:68,67
DA:69,47
DA:70,1
DA:72,46
DA:74,20
DA:75,66
DA:76,92
DA:77,304
DA:78,258
DA:80,46
DA:82,20
DA:83,436
DA:84,416
DA:86,20
DA:94,22
DA:95,22
DA:96,22
DA:97,22
DA:98,22
DA:99,17
DA:101,22
DA:102,10
DA:104,22
DA:111,7
DA:112,14
DA:113,14
DA:114,7
DA:115,7
DA:116,3
DA:118,4
DA:119,10
DA:120,8
DA:124,10
DA:125,48
DA:126,80
DA:127,40
DA:131,14
DA:138,3
DA:139,6
DA:140,3
DA:141,28
DA:142,25
DA:144,6
DA:151,4
DA:152,8
DA:153,4
DA:154,4
DA:155,8
DA:156,6
DA:160,8
DA:161,36
DA:162,30
DA:166,8
DA:173,2
DA:174,4
DA:175,2
DA:176,2
DA:177,4
DA:178,3
DA:182,16
DA:183,15
DA:186,4
DA:193,1
DA:194,2
DA:195,1
DA:196,13
DA:197,12
DA:199,2
DA:206,2
DA:207,4
DA:208,2
DA:209,8
DA:210,30
DA:211,24
DA:214,4
DA:220,3
DA:224,6
DA:225,3
DA:226,3
DA:227,1
DA:229,2
DA:230,5
DA:231,4
DA:232,4
DA:234,4
DA:235,3
DA:236,3
DA:239,1
DA:240,1
DA:241,1
DA:244,5
DA:245,24
DA:246,20
DA:247,20
DA:248,20
DA:249,20
DA:252,4
DA:253,18
DA:254,15
DA:255,15
DA:256,15
DA:257,15
DA:260,4
DA:261,15
DA:262,12
DA:263,24
DA:264,12
DA:268,1
DA:269,1
DA:270,1
DA:272,6
DA:342,3
DA:343,3
LF:120
LH:119
end_of_record
TN:
SF:/home/fr/Projects/cpp/numerical/build/include/numerical/fdm/Parameters.hpp
FN:31,_ZN9numerical3fdm10ParametersIdEC2Ev
FNDA:4,_ZN9numerical3fdm10ParametersIdEC2Ev
FNF:1
FNH:1
DA:31,4
DA:32,4
DA:34,4
DA:35,4
DA:37,16
DA:39,4
DA:41,4
DA:43,4
DA:45,4
DA:46,4
LF:10
LH:10
end_of_record
TN:
SF:/home/fr/Projects/cpp/numerical/build/include/numerical/fdm/Problem.hpp
FN:43,_ZN9numerical3fdm7ProblemIdEC2EPNS0_10ParametersIdEE
FN:51,_ZN9numerical3fdm7ProblemIdED0Ev
FN:51,_ZN9numerical3fdm7ProblemIdED2Ev
FN:63,_ZN9numerical3fdm7ProblemIdE5alphaEdddd
FN:70,_ZN9numerical3fdm7ProblemIdE3dimEv
FN:83,_ZN9numerical3fdm7ProblemIdE4leftEiddd
FN:96,_ZN9numerical3fdm7ProblemIdE5rightEiddd
FN:110,_ZN9numerical3fdm7ProblemIdE6bottomEiddd
FN:123,_ZN9numerical3fdm7ProblemIdE3topEiddd
FN:136,_ZN9numerical3fdm7ProblemIdE5frontEiddd
FN:149,_ZN9numerical3fdm7ProblemIdE4backEiddd
FN:161,_ZN9numerical3fdm7ProblemIdE13initial_valueEddd
FN:174,_ZN9numerical3fdm7ProblemIdE9referenceEdddd
FN:187,_ZN9numerical3fdm7ProblemIdE8solutionEdddd
FN:200,_ZN9numerical3fdm7ProblemIdE6sourceEdddd
FNDA:0,_ZN9numerical3fdm7ProblemIdE5alphaEdddd
FNDA:0,_ZN9numerical3fdm7ProblemIdE9referenceEdddd
FNDA:2,_ZN9numerical3fdm7ProblemIdEC2EPNS0_10ParametersIdEE
FNDA:0,_ZN9numerical3fdm7ProblemIdE6bottomEiddd
FNDA:1,_ZN9numerical3fdm7ProblemIdED0Ev
FNDA:0,_ZN9numerical3fdm7ProblemIdE6sourceEdddd
FNDA:2,_ZN9numerical3fdm7ProblemIdED2Ev
FNDA:0,_ZN9numerical3fdm7ProblemIdE8solutionEdddd
FNDA:0,_ZN9numerical3fdm7ProblemIdE5frontEiddd
FNDA:0,_ZN9numerical3fdm7ProblemIdE3topEiddd
FNDA:1,_ZN9numerical3fdm7ProblemIdE4leftEiddd
FNDA:0,_ZN9numerical3fdm7ProblemIdE5rightEiddd
FNDA:1,_ZN9numerical3fdm7ProblemIdE3dimEv
FNDA:0,_ZN9numerical3fdm7ProblemIdE13initial_valueEddd
FNDA:0,_ZN9numerical3fdm7ProblemIdE4backEiddd
FNF:15
FNH:5
DA:43,2
DA:44,2
DA:46,2
DA:48,2
DA:49,2
DA:50,2
DA:51,3
DA:52,3
DA:53,1
DA:54,1
DA:55,2
DA:56,2
DA:67,0
DA:68,0
DA:74,1
DA:75,1
DA:87,1
DA:88,1
DA:100,0
DA:101,0
DA:114,0
DA:115,0
DA:127,0
DA:128,0
DA:140,0
DA:141,0
DA:153,0
DA:154,0
DA:165,0
DA:166,0
DA:178,0
DA:179,0
DA:191,0
DA:192,0
DA:204,0
DA:205,0
LF:36
LH:16
end_of_record
TN:
SF:/home/fr/Projects/cpp/numerical/build/include/numerical/fdm/SparseSolver.hpp
FN:35,_ZN9numerical3fdm12SparseSolverIdEC2EPNS0_7ProblemIdEE
FN:41,_ZN9numerical3fdm12SparseSolverIdED2Ev
FN:126,_ZN9numerical3fdm12SparseSolverIdE5solveEv
FNDA:1,_ZN9numerical3fdm12SparseSolverIdED2Ev
FNDA:1,_ZN9numerical3fdm12SparseSolverIdE5solveEv
FNDA:1,_ZN9numerical3fdm12SparseSolverIdEC2EPNS0_7ProblemIdEE
FNF:3
FNH:3
DA:35,1
DA:36,1
DA:40,1
DA:41,1
DA:44,1
DA:126,1
DA:133,1
DA:136,1
DA:137,1
LF:9
LH:9
end_of_record
TN:
SF:/home/fr/Projects/cpp/numerical/build/include/utils/ExecutionTimer.hpp
FN:29,_ZN5utils14ExecutionTimerINSt6chrono8durationIlSt5ratioILl1ELl1000000000EEEEEC2Ev
FN:29,_ZN5utils14ExecutionTimerINSt6chrono8durationIlSt5ratioILl1ELl1000EEEEEC2Ev
FN:30,_ZN5utils14ExecutionTimerINSt6chrono8durationIlSt5ratioILl1ELl1000EEEEED2Ev
FN:30,_ZN5utils14ExecutionTimerINSt6chrono8durationIlSt5ratioILl1ELl1000000000EEEEED2Ev
FNDA:1,_ZN5utils14ExecutionTimerINSt6chrono8durationIlSt5ratioILl1ELl1000EEEEEC2Ev
FNDA:1,_ZN5utils14ExecutionTimerINSt6chrono8durationIlSt5ratioILl1ELl1000000000EEEEEC2Ev
FNDA:1,_ZN5utils14ExecutionTimerINSt6chrono8durationIlSt5ratioILl1ELl1000000000EEEEED2Ev
FNDA:1,_ZN5utils14ExecutionTimerINSt6chrono8durationIlSt5ratioILl1ELl1000EEEEED2Ev
FNF:4
FNH:4
DA:29,2
DA:30,2
DA:31,2
DA:32,2
DA:33,2
DA:34,2
DA:35,1
DA:36,1
DA:37,1
DA:38,1
DA:39,1
DA:40,1
DA:41,1
DA:42,1
DA:43,1
DA:44,1
DA:49,2
DA:50,2
DA:51,2
DA:52,2
DA:53,2
DA:54,2
LF:22
LH:22
end_of_record
TN:
SF:/home/fr/Projects/cpp/numerical/build/include/utils/Utils.hpp
FN:30,_ZN5utils9all_closeIN5Eigen6MatrixIdLin1ELi1ELi0ELin1ELi1EEES3_EEbRKNS1_9DenseBaseIT_EERKNS4_IT0_EERKNS5_10RealScalarESF_
FN:51,_ZN5utils13linear_spacedIdEESt6vectorIT_SaIS2_EES2_S2_m
FNDA:1,_ZN5utils13linear_spacedIdEESt6vectorIT_SaIS2_EES2_S2_m
FNDA:2,_ZN5utils9all_closeIN5Eigen6MatrixIdLin1ELi1ELi0ELin1ELi1EEES3_EEbRKNS1_9DenseBaseIT_EERKNS4_IT0_EERKNS5_10RealScalarESF_
FNF:2
FNH:2
DA:30,2
DA:38,2
DA:39,4
DA:51,1
DA:53,1
DA:54,1
DA:55,1
DA:57,5
DA:58,4
DA:60,2
LF:10
LH:10
end_of_record
